target datalayout = "e-m:e-p270:32:32-p271:32:32-p272:64:64-i64:64-i128:128-f80:128-n8:16:32:64-S128"
target triple = "x86_64-pc-linux-gnu"

%class.rewriter_core = type { ptr, ptr, i8, i8, %class.ptr_vector, ptr, %class.svector, %class.ref_vector, %class.ptr_vector, ptr, %class.ref_vector.3, %class.obj_hashtable, ptr, i32, %class.svector.8 }
%class.svector = type { %class.vector.0 }
%class.vector.0 = type { ptr }
%class.ref_vector = type { %class.ref_vector_core }
%class.ref_vector_core = type { %class.ref_manager_wrapper, %class.ptr_vector.1 }
%class.ref_manager_wrapper = type { ptr }
%class.ptr_vector.1 = type { %class.vector.2 }
%class.vector.2 = type { ptr }
%class.ptr_vector = type { %class.vector }
%class.vector = type { ptr }
%class.ref_vector.3 = type { %class.ref_vector_core.4 }
%class.ref_vector_core.4 = type { %class.ref_manager_wrapper.5, %class.ptr_vector.6 }
%class.ref_manager_wrapper.5 = type { ptr }
%class.ptr_vector.6 = type { %class.vector.7 }
%class.vector.7 = type { ptr }
%class.obj_hashtable = type { %class.core_hashtable.base, [4 x i8] }
%class.core_hashtable.base = type <{ ptr, i32, i32, i32 }>
%class.svector.8 = type { %class.vector.9 }
%class.vector.9 = type { ptr }
%class.rewriter_tpl = type { %class.rewriter_core, ptr, i32, %class.ptr_vector.1, %class.var_shifter, %class.inv_var_shifter, %class.obj_ref, %class.obj_ref.10, %class.obj_ref.10, %class.svector.11 }
%class.var_shifter = type <{ %class.var_shifter_core, i32, i32, i32, [4 x i8] }>
%class.var_shifter_core = type { %class.rewriter_core }
%class.inv_var_shifter = type <{ %class.var_shifter_core, i32, [4 x i8] }>
%class.obj_ref = type { ptr, ptr }
%class.obj_ref.10 = type { ptr, ptr }
%class.svector.11 = type { %class.vector.12 }
%class.vector.12 = type { ptr }
%class.symmetry_reduce_tactic = type { %class.tactic.base, ptr }
%class.tactic.base = type <{ %"class.user_propagator::core", i32 }>
%"class.user_propagator::core" = type { ptr }
%"class.symmetry_reduce_tactic::imp" = type { ptr, %class.ac_rewriter_star, %class.scoped_ptr }
%class.ac_rewriter_star = type { %class.rewriter_tpl, %struct.ac_rewriter_cfg }
%struct.ac_rewriter_cfg = type { %class.ac_rewriter }
%class.ac_rewriter = type { ptr }
%class.scoped_ptr = type { ptr }

; Function Attrs: mustprogress uwtable
define linkonce_odr hidden void @_Z7deallocI13expr_replacerEvPT_(ptr noundef %0) #5 comdat {
  %2 = alloca ptr, align 8
  store ptr %0, ptr %2, align 8, !tbaa !321
  %3 = load ptr, ptr %2, align 8, !tbaa !321
  %4 = icmp eq ptr %3, null
  br i1 %4, label %5, label %6

5:                                                ; preds = %1
  br label %12

6:                                                ; preds = %1
  %7 = load ptr, ptr %2, align 8, !tbaa !321
  %8 = load ptr, ptr %7, align 8, !tbaa !24
  %9 = getelementptr inbounds ptr, ptr %8, i64 0
  %10 = load ptr, ptr %9, align 8
  call void %10(ptr noundef nonnull align 8 dereferenceable(8) %7) #3
  %11 = load ptr, ptr %2, align 8, !tbaa !321
  call void @_ZN6memory10deallocateEPv(ptr noundef %11)
  br label %12

12:                                               ; preds = %6, %5
  ret void
}

; Function Attrs: mustprogress nounwind uwtable
define linkonce_odr hidden void @_ZN10scoped_ptrI13expr_replacerED2Ev(ptr noundef nonnull align 8 dereferenceable(8) %0) unnamed_addr #4 comdat align 2 personality ptr @__gxx_personality_v0 {
  %2 = alloca ptr, align 8
  store ptr %0, ptr %2, align 8, !tbaa !319
  %3 = load ptr, ptr %2, align 8
  %4 = getelementptr inbounds nuw %class.scoped_ptr, ptr %3, i32 0, i32 0
  %5 = load ptr, ptr %4, align 8, !tbaa !322
  invoke void @_Z7deallocI13expr_replacerEvPT_(ptr noundef %5)
          to label %6 unwind label %7

6:                                                ; preds = %1
  ret void

7:                                                ; preds = %1
  %8 = landingpad { ptr, i32 }
          catch ptr null
  %9 = extractvalue { ptr, i32 } %8, 0
  call void @__clang_call_terminate(ptr %9) #22
  unreachable
}

; Function Attrs: inlinehint mustprogress nounwind uwtable
define linkonce_odr hidden void @_ZN22symmetry_reduce_tactic3impD2Ev(ptr noundef nonnull align 8 dereferenceable(560) %0) unnamed_addr #8 comdat align 2 {
  %2 = alloca ptr, align 8
  store ptr %0, ptr %2, align 8, !tbaa !229
  %3 = load ptr, ptr %2, align 8
  %4 = getelementptr inbounds nuw %"class.symmetry_reduce_tactic::imp", ptr %3, i32 0, i32 2
  call void @_ZN10scoped_ptrI13expr_replacerED2Ev(ptr noundef nonnull align 8 dereferenceable(8) %4) #3
  %5 = getelementptr inbounds nuw %"class.symmetry_reduce_tactic::imp", ptr %3, i32 0, i32 1
  call void @_ZN12rewriter_tplI15ac_rewriter_cfgED2Ev(ptr noundef nonnull align 8 dereferenceable(544) %5) #3
  ret void
}

; Function Attrs: mustprogress nounwind uwtable
define linkonce_odr hidden void @_ZN15user_propagator4coreD2Ev(ptr noundef nonnull align 8 dereferenceable(8) %0) unnamed_addr #4 comdat align 2 {
  %2 = alloca ptr, align 8
  store ptr %0, ptr %2, align 8, !tbaa !260
  ret void
}

; Function Attrs: mustprogress uwtable
define linkonce_odr hidden void @_Z7deallocIN22symmetry_reduce_tactic3impEEvPT_(ptr noundef %0) #5 comdat {
  %2 = alloca ptr, align 8
  store ptr %0, ptr %2, align 8, !tbaa !229
  %3 = load ptr, ptr %2, align 8, !tbaa !229
  %4 = icmp eq ptr %3, null
  br i1 %4, label %5, label %6

5:                                                ; preds = %1
  br label %9

6:                                                ; preds = %1
  %7 = load ptr, ptr %2, align 8, !tbaa !229
  call void @_ZN22symmetry_reduce_tactic3impD2Ev(ptr noundef nonnull align 8 dereferenceable(560) %7) #3
  %8 = load ptr, ptr %2, align 8, !tbaa !229
  call void @_ZN6memory10deallocateEPv(ptr noundef %8)
  br label %9

9:                                                ; preds = %6, %5
  ret void
}

; Function Attrs: mustprogress nounwind uwtable
define hidden void @_ZN22symmetry_reduce_tacticD2Ev(ptr noundef nonnull align 8 dereferenceable(24) %0) unnamed_addr #4 align 2 personality ptr @__gxx_personality_v0 {
  %2 = alloca ptr, align 8
  store ptr %0, ptr %2, align 8, !tbaa !219
  %3 = load ptr, ptr %2, align 8
  store ptr getelementptr inbounds inrange(-16, 192) ({ [26 x ptr] }, ptr @_ZTV22symmetry_reduce_tactic, i32 0, i32 0, i32 2), ptr %3, align 8, !tbaa !24
  %4 = getelementptr inbounds nuw %class.symmetry_reduce_tactic, ptr %3, i32 0, i32 1
  %5 = load ptr, ptr %4, align 8, !tbaa !221
  invoke void @_Z7deallocIN22symmetry_reduce_tactic3impEEvPT_(ptr noundef %5)
          to label %6 unwind label %7

6:                                                ; preds = %1
  call void @_ZN15user_propagator4coreD2Ev(ptr noundef nonnull align 8 dereferenceable(12) %3) #3
  ret void

7:                                                ; preds = %1
  %8 = landingpad { ptr, i32 }
          catch ptr null
  %9 = extractvalue { ptr, i32 } %8, 0
  call void @__clang_call_terminate(ptr %9) #22
  unreachable
}