; Function Attrs: mustprogress nounwind uwtable
define hidden void @_ZN22symmetry_reduce_tacticD2Ev(ptr noundef nonnull align 8 captures(none) dereferenceable(24) initializes((0, 8)) %0) unnamed_addr #3 align 2 personality ptr @__gxx_personality_v0 {
  store ptr getelementptr inbounds nuw inrange(-16, 192) (i8, ptr @_ZTV22symmetry_reduce_tactic, i64 16), ptr %0, align 8, !tbaa !154
  %2 = getelementptr inbounds nuw i8, ptr %0, i64 16
  %3 = load ptr, ptr %2, align 8, !tbaa !187
  %4 = icmp eq ptr %3, null
  br i1 %4, label %_Z7deallocIN22symmetry_reduce_tactic3impEEvPT_.exit, label %5

5:                                                ; preds = %1
  %6 = getelementptr inbounds nuw i8, ptr %3, i64 552
  %7 = load ptr, ptr %6, align 8, !tbaa !184
  %8 = icmp eq ptr %7, null
  br i1 %8, label %_ZN22symmetry_reduce_tactic3impD2Ev.exit.i, label %9

9:                                                ; preds = %5
  %10 = load ptr, ptr %7, align 8, !tbaa !154
  %11 = load ptr, ptr %10, align 8
  tail call void %11(ptr noundef nonnull align 8 dereferenceable(8) %7) #22
  invoke void @_ZN6memory10deallocateEPv(ptr noundef nonnull %7)
          to label %_ZN22symmetry_reduce_tactic3impD2Ev.exit.i unwind label %12

12:                                               ; preds = %9
  %13 = landingpad { ptr, i32 }
          catch ptr null
  %14 = extractvalue { ptr, i32 } %13, 0
  tail call void @__clang_call_terminate(ptr %14) #25
  unreachable

_ZN22symmetry_reduce_tactic3impD2Ev.exit.i:       ; preds = %9, %5
  %15 = getelementptr inbounds nuw i8, ptr %3, i64 8
  tail call void @_ZN12rewriter_tplI15ac_rewriter_cfgED2Ev(ptr noundef nonnull align 8 dereferenceable(544) %15) #22
  invoke void @_ZN6memory10deallocateEPv(ptr noundef nonnull %3)
          to label %_Z7deallocIN22symmetry_reduce_tactic3impEEvPT_.exit unwind label %16

_Z7deallocIN22symmetry_reduce_tactic3impEEvPT_.exit: ; preds = %1, %_ZN22symmetry_reduce_tactic3impD2Ev.exit.i
  ret void

16:                                               ; preds = %_ZN22symmetry_reduce_tactic3impD2Ev.exit.i
  %17 = landingpad { ptr, i32 }
          catch ptr null
  %18 = extractvalue { ptr, i32 } %17, 0
  tail call void @__clang_call_terminate(ptr %18) #25
  unreachable
}